
Allocating common symbols
Common symbol       size              file

kern_stack_top      0x4               build/boot.o

Discarded input sections

 .comment       0x0000000000000000       0x2a build/boot.o
 .eh_frame      0x0000000000000000       0xa0 build/boot.o
 .comment       0x0000000000000000       0x2a build/main.o
 .eh_frame      0x0000000000000000       0x34 build/main.o
 .comment       0x0000000000000000       0x2a build/setup.o
 .comment       0x0000000000000000       0x2a build/init_task.o
 .comment       0x0000000000000000       0x2a build/panic.o
 .eh_frame      0x0000000000000000       0x34 build/panic.o
 .comment       0x0000000000000000       0x2a build/printk.o
 .eh_frame      0x0000000000000000       0x38 build/printk.o
 .comment       0x0000000000000000       0x2a build/console.o
 .eh_frame      0x0000000000000000      0x198 build/console.o
 .comment       0x0000000000000000       0x2a build/ctype.o
 .comment       0x0000000000000000       0x2a build/string.o
 .eh_frame      0x0000000000000000      0x198 build/string.o
 .comment       0x0000000000000000       0x2a build/vsprintf.o
 .eh_frame      0x0000000000000000      0x16c build/vsprintf.o

Memory Configuration

Name             Origin             Length             Attributes
*default*        0x0000000000000000 0xffffffffffffffff

Linker script and memory map

                0x0000000000100000                . = 0x100000
                [!provide]                        PROVIDE (_start = .)

.text.init      0x0000000000100000     0x1000
 *(.text.init)
 .text.init     0x0000000000100000       0x2d build/grub_head.o
                0x000000000010000c                start
                0x0000000000100025                flush
 .text.init     0x000000000010002d      0x310 build/boot.o
                0x0000000000100308                kern_entry
                0x0000000000101000                . = ALIGN (0x1000)
 *fill*         0x000000000010033d      0xcc3 

.data.init      0x0000000000101000     0xb000
 *(.data.init)
 .data.init     0x0000000000101000     0x8004 build/grub_head.o
                0x0000000000109000                global_multiboot_info
 *fill*         0x0000000000109004      0xffc 
 .data.init     0x000000000010a000     0x2000 build/boot.o
                0x000000000010a000                pgd
                0x000000000010b000                pte
                0x000000000010c000                . = ALIGN (0x2000)
                0x00000000c010c000                . = (. + 0xc0000000)

.text           0x00000000c010c000     0x2000 load address 0x000000000010c000
 *(.text)
 .text          0x00000000c010c000        0x0 build/boot.o
 .text          0x00000000c010c000       0x78 build/main.o
                0x00000000c010c000                start_kernel
 .text          0x00000000c010c078        0x0 build/setup.o
 .text          0x00000000c010c078        0x0 build/init_task.o
 .text          0x00000000c010c078       0x62 build/panic.o
                0x00000000c010c078                panic
 .text          0x00000000c010c0da       0x44 build/printk.o
                0x00000000c010c0da                printk
 .text          0x00000000c010c11e      0x442 build/console.o
                0x00000000c010c13d                print_char
                0x00000000c010c24c                print_str
                0x00000000c010c27a                print_int
                0x00000000c010c2b9                print_hex
                0x00000000c010c308                set_cursor
                0x00000000c010c384                flush_screen
                0x00000000c010c3b2                scroll_screen
                0x00000000c010c4ec                console_clear
                0x00000000c010c54e                console_write
                0x00000000c010c554                console_write_with_color
                0x00000000c010c55a                console_with_hex
 .text          0x00000000c010c560        0x0 build/ctype.o
 .text          0x00000000c010c560      0x3ae build/string.o
                0x00000000c010c560                itoa
                0x00000000c010c617                uitoa
                0x00000000c010c6d3                strlen
                0x00000000c010c6fb                strnlen
                0x00000000c010c730                strcpy
                0x00000000c010c760                strcat
                0x00000000c010c7a0                strcmp
                0x00000000c010c7df                strchr
                0x00000000c010c80c                strrchr
                0x00000000c010c84c                memset
                0x00000000c010c87a                memcpy
                0x00000000c010c8b7                memcmp
 .text          0x00000000c010c90e      0xb0e build/vsprintf.o
                0x00000000c010cc93                simple_strtol
                0x00000000c010ccd5                simple_strtoul
                0x00000000c010cdc5                printf
                0x00000000c010ce13                sprintf
                0x00000000c010ce43                snprintf
                0x00000000c010ce73                vsprintf
                0x00000000c010ce8e                vsnprintf
                0x00000000c010e000                . = ALIGN (0x1000)
 *fill*         0x00000000c010d41c      0xbe4 

.iplt           0x00000000c010e000        0x0 load address 0x000000000010e000
 .iplt          0x00000000c010e000        0x0 build/grub_head.o

.rel.dyn        0x00000000c010e000        0x0 load address 0x000000000010e000
 .rel.got       0x00000000c010e000        0x0 build/grub_head.o
 .rel.iplt      0x00000000c010e000        0x0 build/grub_head.o
 .rel.text.init
                0x00000000c010e000        0x0 build/grub_head.o

.data           0x00000000c010e000     0x2000 load address 0x000000000010e000
 *(.data)
 .data          0x00000000c010e000        0x0 build/boot.o
 .data          0x00000000c010e000        0x0 build/main.o
 .data          0x00000000c010e000        0x0 build/setup.o
 .data          0x00000000c010e000        0x0 build/init_task.o
 .data          0x00000000c010e000        0x0 build/panic.o
 .data          0x00000000c010e000        0x4 build/printk.o
 .data          0x00000000c010e004        0x4 build/console.o
 *fill*         0x00000000c010e008       0x18 
 .data          0x00000000c010e020      0x100 build/ctype.o
                0x00000000c010e020                _ctype
 .data          0x00000000c010e120        0x0 build/string.o
 .data          0x00000000c010e120        0x0 build/vsprintf.o
 *(.rodata)
 .rodata        0x00000000c010e120       0x1b build/main.o
 .rodata        0x00000000c010e13b       0x37 build/panic.o
 .rodata        0x00000000c010e172        0x3 build/console.o
 *fill*         0x00000000c010e175        0xb 
 .rodata        0x00000000c010e180      0x205 build/vsprintf.o
                0x00000000c0110000                . = ALIGN (0x2000)
 *fill*         0x00000000c010e385     0x1c7b 

.got            0x00000000c0110000        0x0 load address 0x0000000000110000
 .got           0x00000000c0110000        0x0 build/grub_head.o

.got.plt        0x00000000c0110000        0x0 load address 0x0000000000110000
 .got.plt       0x00000000c0110000        0x0 build/grub_head.o

.igot.plt       0x00000000c0110000        0x0 load address 0x0000000000110000
 .igot.plt      0x00000000c0110000        0x0 build/grub_head.o

.bss            0x00000000c0110000     0x1004 load address 0x0000000000110000
 *(.bss)
 .bss           0x00000000c0110000        0x0 build/boot.o
 .bss           0x00000000c0110000        0x0 build/main.o
 .bss           0x00000000c0110000        0x0 build/setup.o
 .bss           0x00000000c0110000        0x0 build/init_task.o
 .bss           0x00000000c0110000      0x400 build/panic.o
 .bss           0x00000000c0110400      0x400 build/printk.o
 .bss           0x00000000c0110800        0x4 build/console.o
                0x00000000c0110800                cursor_x
                0x00000000c0110802                cursor_y
 .bss           0x00000000c0110804        0x0 build/ctype.o
 .bss           0x00000000c0110804        0x0 build/string.o
 .bss           0x00000000c0110804        0x0 build/vsprintf.o
                0x00000000c0111000                . = ALIGN (0x1000)
 *fill*         0x00000000c0110804      0x7fc 
 COMMON         0x00000000c0111000        0x4 build/boot.o
                0x00000000c0111000                kern_stack_top

.stab           0x00000000c0111004      0xffc load address 0x0000000000111004
 *(.stab)
 .stab          0x00000000c0111004        0xc build/grub_head.o
                0x00000000c0112000                . = ALIGN (0x2000)
 *fill*         0x00000000c0111010      0xff0 

.data.init_task
                0x00000000c0112000        0x0 load address 0x0000000000112000
 *(.data.init_task)
                0x00000000c0112000                . = ALIGN (0x2000)
                [!provide]                        PROVIDE (__initcall_start = .)

.initcall.init  0x00000000c0112000        0x0 load address 0x0000000000112000
 *(.initcall.init)
                [!provide]                        PROVIDE (__initcall_end = .)
                0x00000000c0112000                . = ALIGN (0x2000)
                0x00000000c0114000                . = (. + 0x2000)

.stabstr        0x00000000c0114000     0x1000 load address 0x0000000000114000
 *(.stabstr)
 .stabstr       0x00000000c0114000        0x1 build/grub_head.o
                0x00000000c0115000                . = ALIGN (0x1000)
 *fill*         0x00000000c0114001      0xfff 
                [!provide]                        PROVIDE (_end = .)

/DISCARD/
 *(.comment)
 *(.eh_frame)
LOAD build/grub_head.o
LOAD build/boot.o
LOAD build/main.o
LOAD build/setup.o
LOAD build/init_task.o
LOAD build/panic.o
LOAD build/printk.o
LOAD build/console.o
LOAD build/ctype.o
LOAD build/string.o
LOAD build/vsprintf.o
OUTPUT(build/kernel.bin elf32-i386)

.debug_info     0x0000000000000000     0x1549
 .debug_info    0x0000000000000000      0x439 build/boot.o
 .debug_info    0x0000000000000439       0x8d build/main.o
 .debug_info    0x00000000000004c6       0xd0 build/panic.o
 .debug_info    0x0000000000000596      0x12a build/printk.o
 .debug_info    0x00000000000006c0      0x3db build/console.o
 .debug_info    0x0000000000000a9b       0x51 build/ctype.o
 .debug_info    0x0000000000000aec      0x48d build/string.o
 .debug_info    0x0000000000000f79      0x5d0 build/vsprintf.o

.debug_abbrev   0x0000000000000000      0x6a1
 .debug_abbrev  0x0000000000000000      0x169 build/boot.o
 .debug_abbrev  0x0000000000000169       0x51 build/main.o
 .debug_abbrev  0x00000000000001ba       0x98 build/panic.o
 .debug_abbrev  0x0000000000000252       0xbd build/printk.o
 .debug_abbrev  0x000000000000030f      0x133 build/console.o
 .debug_abbrev  0x0000000000000442       0x47 build/ctype.o
 .debug_abbrev  0x0000000000000489       0xe1 build/string.o
 .debug_abbrev  0x000000000000056a      0x137 build/vsprintf.o

.debug_loc      0x0000000000000000      0x8e0
 .debug_loc     0x0000000000000000       0xe0 build/boot.o
 .debug_loc     0x00000000000000e0       0x2c build/main.o
 .debug_loc     0x000000000000010c       0x2c build/panic.o
 .debug_loc     0x0000000000000138       0x38 build/printk.o
 .debug_loc     0x0000000000000170      0x2a0 build/console.o
 .debug_loc     0x0000000000000410      0x2a0 build/string.o
 .debug_loc     0x00000000000006b0      0x230 build/vsprintf.o

.debug_aranges  0x0000000000000000      0x110
 .debug_aranges
                0x0000000000000000       0x38 build/boot.o
 .debug_aranges
                0x0000000000000038       0x20 build/main.o
 .debug_aranges
                0x0000000000000058       0x20 build/panic.o
 .debug_aranges
                0x0000000000000078       0x20 build/printk.o
 .debug_aranges
                0x0000000000000098       0x20 build/console.o
 .debug_aranges
                0x00000000000000b8       0x18 build/ctype.o
 .debug_aranges
                0x00000000000000d0       0x20 build/string.o
 .debug_aranges
                0x00000000000000f0       0x20 build/vsprintf.o

.debug_ranges   0x0000000000000000       0x28
 .debug_ranges  0x0000000000000000       0x28 build/boot.o

.debug_line     0x0000000000000000      0x753
 .debug_line    0x0000000000000000      0x109 build/boot.o
 .debug_line    0x0000000000000109       0x57 build/main.o
 .debug_line    0x0000000000000160        0x0 build/setup.o
 .debug_line    0x0000000000000160        0x0 build/init_task.o
 .debug_line    0x0000000000000160       0x4c build/panic.o
 .debug_line    0x00000000000001ac       0x7f build/printk.o
 .debug_line    0x000000000000022b      0x163 build/console.o
 .debug_line    0x000000000000038e       0x47 build/ctype.o
 .debug_line    0x00000000000003d5      0x11d build/string.o
 .debug_line    0x00000000000004f2      0x261 build/vsprintf.o

.debug_str      0x0000000000000000      0x6fe
 .debug_str     0x0000000000000000      0x32a build/boot.o
                                        0x389 (size before relaxing)
 .debug_str     0x000000000000032a       0x19 build/main.o
                                         0xf6 (size before relaxing)
 .debug_str     0x0000000000000343       0x19 build/setup.o
                                         0x8d (size before relaxing)
 .debug_str     0x000000000000035c       0x1d build/init_task.o
                                         0x91 (size before relaxing)
 .debug_str     0x0000000000000379       0x1a build/panic.o
                                         0xfc (size before relaxing)
 .debug_str     0x0000000000000393       0x3b build/printk.o
                                        0x13a (size before relaxing)
 .debug_str     0x00000000000003ce      0x1c7 build/console.o
                                        0x2d7 (size before relaxing)
 .debug_str     0x0000000000000595       0x13 build/ctype.o
                                         0xa2 (size before relaxing)
 .debug_str     0x00000000000005a8       0x89 build/string.o
                                        0x182 (size before relaxing)
 .debug_str     0x0000000000000631       0xcd build/vsprintf.o
                                        0x218 (size before relaxing)

.note.GNU-stack
                0x0000000000000000        0x0
 .note.GNU-stack
                0x0000000000000000        0x0 build/boot.o
 .note.GNU-stack
                0x0000000000000000        0x0 build/main.o
 .note.GNU-stack
                0x0000000000000000        0x0 build/setup.o
 .note.GNU-stack
                0x0000000000000000        0x0 build/init_task.o
 .note.GNU-stack
                0x0000000000000000        0x0 build/panic.o
 .note.GNU-stack
                0x0000000000000000        0x0 build/printk.o
 .note.GNU-stack
                0x0000000000000000        0x0 build/console.o
 .note.GNU-stack
                0x0000000000000000        0x0 build/ctype.o
 .note.GNU-stack
                0x0000000000000000        0x0 build/string.o
 .note.GNU-stack
                0x0000000000000000        0x0 build/vsprintf.o
