
Allocating common symbols
Common symbol       size              file

kern_stack_top      0x4               ./boot/boot.o

Discarded input sections

 .comment       0x0000000000000000       0x2a ./boot/boot.o
 .eh_frame      0x0000000000000000       0xa0 ./boot/boot.o
 .comment       0x0000000000000000       0x2a ./arch/i386/kernel/init_task.o
 .comment       0x0000000000000000       0x2a ./arch/i386/kernel/setup.o
 .comment       0x0000000000000000       0x2a ./kernel/panic.o
 .eh_frame      0x0000000000000000       0x34 ./kernel/panic.o
 .comment       0x0000000000000000       0x2a ./kernel/printk.o
 .eh_frame      0x0000000000000000       0x38 ./kernel/printk.o
 .comment       0x0000000000000000       0x2a ./kernel/console.o
 .eh_frame      0x0000000000000000      0x198 ./kernel/console.o
 .comment       0x0000000000000000       0x2a ./init/main.o
 .eh_frame      0x0000000000000000       0x34 ./init/main.o
 .comment       0x0000000000000000       0x2a ./lib/vsprintf.o
 .eh_frame      0x0000000000000000      0x16c ./lib/vsprintf.o
 .comment       0x0000000000000000       0x2a ./lib/ctype.o
 .comment       0x0000000000000000       0x2a ./lib/string.o
 .eh_frame      0x0000000000000000      0x198 ./lib/string.o

Memory Configuration

Name             Origin             Length             Attributes
*default*        0x0000000000000000 0xffffffffffffffff

Linker script and memory map

                0x0000000000100000                . = 0x100000
                [!provide]                        PROVIDE (_start = .)

.text.init      0x0000000000100000     0x1000
 *(.text.init)
 .text.init     0x0000000000100000       0x2d ./boot/grub_head.o
                0x000000000010000c                start
                0x0000000000100025                flush
 .text.init     0x000000000010002d      0x310 ./boot/boot.o
                0x0000000000100308                kern_entry
                0x0000000000101000                . = ALIGN (0x1000)
 *fill*         0x000000000010033d      0xcc3 

.data.init      0x0000000000101000     0xb000
 *(.data.init)
 .data.init     0x0000000000101000     0x8004 ./boot/grub_head.o
                0x0000000000109000                global_multiboot_info
 *fill*         0x0000000000109004      0xffc 
 .data.init     0x000000000010a000     0x2000 ./boot/boot.o
                0x000000000010a000                pgd
                0x000000000010b000                pte
                0x000000000010c000                . = ALIGN (0x2000)
                0x00000000c010c000                . = (. + 0xc0000000)

.text           0x00000000c010c000     0x2000 load address 0x000000000010c000
 *(.text)
 .text          0x00000000c010c000        0x0 ./boot/boot.o
 .text          0x00000000c010c000        0x0 ./arch/i386/kernel/init_task.o
 .text          0x00000000c010c000        0x0 ./arch/i386/kernel/setup.o
 .text          0x00000000c010c000       0x62 ./kernel/panic.o
                0x00000000c010c000                panic
 .text          0x00000000c010c062       0x44 ./kernel/printk.o
                0x00000000c010c062                printk
 .text          0x00000000c010c0a6      0x442 ./kernel/console.o
                0x00000000c010c0c5                print_char
                0x00000000c010c1d4                print_str
                0x00000000c010c202                print_int
                0x00000000c010c241                print_hex
                0x00000000c010c290                set_cursor
                0x00000000c010c30c                flush_screen
                0x00000000c010c33a                scroll_screen
                0x00000000c010c474                console_clear
                0x00000000c010c4d6                console_write
                0x00000000c010c4dc                console_write_with_color
                0x00000000c010c4e2                console_with_hex
 .text          0x00000000c010c4e8       0x78 ./init/main.o
                0x00000000c010c4e8                start_kernel
 .text          0x00000000c010c560      0xb0e ./lib/vsprintf.o
                0x00000000c010c8e5                simple_strtol
                0x00000000c010c927                simple_strtoul
                0x00000000c010ca17                printf
                0x00000000c010ca65                sprintf
                0x00000000c010ca95                snprintf
                0x00000000c010cac5                vsprintf
                0x00000000c010cae0                vsnprintf
 .text          0x00000000c010d06e        0x0 ./lib/ctype.o
 .text          0x00000000c010d06e      0x3ae ./lib/string.o
                0x00000000c010d06e                itoa
                0x00000000c010d125                uitoa
                0x00000000c010d1e1                strlen
                0x00000000c010d209                strnlen
                0x00000000c010d23e                strcpy
                0x00000000c010d26e                strcat
                0x00000000c010d2ae                strcmp
                0x00000000c010d2ed                strchr
                0x00000000c010d31a                strrchr
                0x00000000c010d35a                memset
                0x00000000c010d388                memcpy
                0x00000000c010d3c5                memcmp
                0x00000000c010e000                . = ALIGN (0x1000)
 *fill*         0x00000000c010d41c      0xbe4 

.iplt           0x00000000c010e000        0x0 load address 0x000000000010e000
 .iplt          0x00000000c010e000        0x0 ./boot/grub_head.o

.rel.dyn        0x00000000c010e000        0x0 load address 0x000000000010e000
 .rel.got       0x00000000c010e000        0x0 ./boot/grub_head.o
 .rel.iplt      0x00000000c010e000        0x0 ./boot/grub_head.o
 .rel.text.init
                0x00000000c010e000        0x0 ./boot/grub_head.o

.data           0x00000000c010e000     0x2000 load address 0x000000000010e000
 *(.data)
 .data          0x00000000c010e000        0x0 ./boot/boot.o
 .data          0x00000000c010e000        0x0 ./arch/i386/kernel/init_task.o
 .data          0x00000000c010e000        0x0 ./arch/i386/kernel/setup.o
 .data          0x00000000c010e000        0x0 ./kernel/panic.o
 .data          0x00000000c010e000        0x4 ./kernel/printk.o
 .data          0x00000000c010e004        0x4 ./kernel/console.o
 .data          0x00000000c010e008        0x0 ./init/main.o
 .data          0x00000000c010e008        0x0 ./lib/vsprintf.o
 *fill*         0x00000000c010e008       0x18 
 .data          0x00000000c010e020      0x100 ./lib/ctype.o
                0x00000000c010e020                _ctype
 .data          0x00000000c010e120        0x0 ./lib/string.o
 *(.rodata)
 .rodata        0x00000000c010e120       0x37 ./kernel/panic.o
 .rodata        0x00000000c010e157        0x3 ./kernel/console.o
 .rodata        0x00000000c010e15a       0x1b ./init/main.o
 *fill*         0x00000000c010e175        0xb 
 .rodata        0x00000000c010e180      0x205 ./lib/vsprintf.o
                0x00000000c0110000                . = ALIGN (0x2000)
 *fill*         0x00000000c010e385     0x1c7b 

.got            0x00000000c0110000        0x0 load address 0x0000000000110000
 .got           0x00000000c0110000        0x0 ./boot/grub_head.o

.got.plt        0x00000000c0110000        0x0 load address 0x0000000000110000
 .got.plt       0x00000000c0110000        0x0 ./boot/grub_head.o

.igot.plt       0x00000000c0110000        0x0 load address 0x0000000000110000
 .igot.plt      0x00000000c0110000        0x0 ./boot/grub_head.o

.bss            0x00000000c0110000     0x1004 load address 0x0000000000110000
 *(.bss)
 .bss           0x00000000c0110000        0x0 ./boot/boot.o
 .bss           0x00000000c0110000        0x0 ./arch/i386/kernel/init_task.o
 .bss           0x00000000c0110000        0x0 ./arch/i386/kernel/setup.o
 .bss           0x00000000c0110000      0x400 ./kernel/panic.o
 .bss           0x00000000c0110400      0x400 ./kernel/printk.o
 .bss           0x00000000c0110800        0x4 ./kernel/console.o
                0x00000000c0110800                cursor_x
                0x00000000c0110802                cursor_y
 .bss           0x00000000c0110804        0x0 ./init/main.o
 .bss           0x00000000c0110804        0x0 ./lib/vsprintf.o
 .bss           0x00000000c0110804        0x0 ./lib/ctype.o
 .bss           0x00000000c0110804        0x0 ./lib/string.o
                0x00000000c0111000                . = ALIGN (0x1000)
 *fill*         0x00000000c0110804      0x7fc 
 COMMON         0x00000000c0111000        0x4 ./boot/boot.o
                0x00000000c0111000                kern_stack_top

.stab           0x00000000c0111004      0xffc load address 0x0000000000111004
 *(.stab)
 .stab          0x00000000c0111004        0xc ./boot/grub_head.o
                0x00000000c0112000                . = ALIGN (0x2000)
 *fill*         0x00000000c0111010      0xff0 

.data.init_task
                0x00000000c0112000        0x0 load address 0x0000000000112000
 *(.data.init_task)
                0x00000000c0112000                . = ALIGN (0x2000)
                [!provide]                        PROVIDE (__initcall_start = .)

.initcall.init  0x00000000c0112000        0x0 load address 0x0000000000112000
 *(.initcall.init)
                [!provide]                        PROVIDE (__initcall_end = .)
                0x00000000c0112000                . = ALIGN (0x2000)
                0x00000000c0114000                . = (. + 0x2000)

.stabstr        0x00000000c0114000     0x1000 load address 0x0000000000114000
 *(.stabstr)
 .stabstr       0x00000000c0114000        0x1 ./boot/grub_head.o
                0x00000000c0115000                . = ALIGN (0x1000)
 *fill*         0x00000000c0114001      0xfff 
                [!provide]                        PROVIDE (_end = .)

/DISCARD/
 *(.comment)
 *(.eh_frame)
LOAD ./boot/grub_head.o
LOAD ./boot/boot.o
LOAD ./arch/i386/kernel/init_task.o
LOAD ./arch/i386/kernel/setup.o
LOAD ./kernel/panic.o
LOAD ./kernel/printk.o
LOAD ./kernel/console.o
LOAD ./init/main.o
LOAD ./lib/vsprintf.o
LOAD ./lib/ctype.o
LOAD ./lib/string.o
OUTPUT(/root/project/OS/build/kernel.bin elf32-i386)

.debug_info     0x0000000000000000     0x1549
 .debug_info    0x0000000000000000      0x439 ./boot/boot.o
 .debug_info    0x0000000000000439       0xd0 ./kernel/panic.o
 .debug_info    0x0000000000000509      0x12a ./kernel/printk.o
 .debug_info    0x0000000000000633      0x3db ./kernel/console.o
 .debug_info    0x0000000000000a0e       0x8d ./init/main.o
 .debug_info    0x0000000000000a9b      0x5d0 ./lib/vsprintf.o
 .debug_info    0x000000000000106b       0x51 ./lib/ctype.o
 .debug_info    0x00000000000010bc      0x48d ./lib/string.o

.debug_abbrev   0x0000000000000000      0x6a1
 .debug_abbrev  0x0000000000000000      0x169 ./boot/boot.o
 .debug_abbrev  0x0000000000000169       0x98 ./kernel/panic.o
 .debug_abbrev  0x0000000000000201       0xbd ./kernel/printk.o
 .debug_abbrev  0x00000000000002be      0x133 ./kernel/console.o
 .debug_abbrev  0x00000000000003f1       0x51 ./init/main.o
 .debug_abbrev  0x0000000000000442      0x137 ./lib/vsprintf.o
 .debug_abbrev  0x0000000000000579       0x47 ./lib/ctype.o
 .debug_abbrev  0x00000000000005c0       0xe1 ./lib/string.o

.debug_loc      0x0000000000000000      0x8e0
 .debug_loc     0x0000000000000000       0xe0 ./boot/boot.o
 .debug_loc     0x00000000000000e0       0x2c ./kernel/panic.o
 .debug_loc     0x000000000000010c       0x38 ./kernel/printk.o
 .debug_loc     0x0000000000000144      0x2a0 ./kernel/console.o
 .debug_loc     0x00000000000003e4       0x2c ./init/main.o
 .debug_loc     0x0000000000000410      0x230 ./lib/vsprintf.o
 .debug_loc     0x0000000000000640      0x2a0 ./lib/string.o

.debug_aranges  0x0000000000000000      0x110
 .debug_aranges
                0x0000000000000000       0x38 ./boot/boot.o
 .debug_aranges
                0x0000000000000038       0x20 ./kernel/panic.o
 .debug_aranges
                0x0000000000000058       0x20 ./kernel/printk.o
 .debug_aranges
                0x0000000000000078       0x20 ./kernel/console.o
 .debug_aranges
                0x0000000000000098       0x20 ./init/main.o
 .debug_aranges
                0x00000000000000b8       0x20 ./lib/vsprintf.o
 .debug_aranges
                0x00000000000000d8       0x18 ./lib/ctype.o
 .debug_aranges
                0x00000000000000f0       0x20 ./lib/string.o

.debug_ranges   0x0000000000000000       0x28
 .debug_ranges  0x0000000000000000       0x28 ./boot/boot.o

.debug_line     0x0000000000000000      0x755
 .debug_line    0x0000000000000000      0x109 ./boot/boot.o
 .debug_line    0x0000000000000109        0x0 ./arch/i386/kernel/init_task.o
 .debug_line    0x0000000000000109        0x0 ./arch/i386/kernel/setup.o
 .debug_line    0x0000000000000109       0x4c ./kernel/panic.o
 .debug_line    0x0000000000000155       0x7f ./kernel/printk.o
 .debug_line    0x00000000000001d4      0x163 ./kernel/console.o
 .debug_line    0x0000000000000337       0x59 ./init/main.o
 .debug_line    0x0000000000000390      0x261 ./lib/vsprintf.o
 .debug_line    0x00000000000005f1       0x47 ./lib/ctype.o
 .debug_line    0x0000000000000638      0x11d ./lib/string.o

.debug_str      0x0000000000000000      0x6fe
 .debug_str     0x0000000000000000      0x32a ./boot/boot.o
                                        0x389 (size before relaxing)
 .debug_str     0x000000000000032a       0x1d ./arch/i386/kernel/init_task.o
                                         0x91 (size before relaxing)
 .debug_str     0x0000000000000347       0x19 ./arch/i386/kernel/setup.o
                                         0x8d (size before relaxing)
 .debug_str     0x0000000000000360       0x1a ./kernel/panic.o
                                         0xfc (size before relaxing)
 .debug_str     0x000000000000037a       0x3b ./kernel/printk.o
                                        0x13a (size before relaxing)
 .debug_str     0x00000000000003b5      0x1c7 ./kernel/console.o
                                        0x2d7 (size before relaxing)
 .debug_str     0x000000000000057c       0x19 ./init/main.o
                                         0xf6 (size before relaxing)
 .debug_str     0x0000000000000595       0xdb ./lib/vsprintf.o
                                        0x218 (size before relaxing)
 .debug_str     0x0000000000000670        0xc ./lib/ctype.o
                                         0xa2 (size before relaxing)
 .debug_str     0x000000000000067c       0x82 ./lib/string.o
                                        0x182 (size before relaxing)

.note.GNU-stack
                0x0000000000000000        0x0
 .note.GNU-stack
                0x0000000000000000        0x0 ./boot/boot.o
 .note.GNU-stack
                0x0000000000000000        0x0 ./arch/i386/kernel/init_task.o
 .note.GNU-stack
                0x0000000000000000        0x0 ./arch/i386/kernel/setup.o
 .note.GNU-stack
                0x0000000000000000        0x0 ./kernel/panic.o
 .note.GNU-stack
                0x0000000000000000        0x0 ./kernel/printk.o
 .note.GNU-stack
                0x0000000000000000        0x0 ./kernel/console.o
 .note.GNU-stack
                0x0000000000000000        0x0 ./init/main.o
 .note.GNU-stack
                0x0000000000000000        0x0 ./lib/vsprintf.o
 .note.GNU-stack
                0x0000000000000000        0x0 ./lib/ctype.o
 .note.GNU-stack
                0x0000000000000000        0x0 ./lib/string.o
