
Allocating common symbols
Common symbol       size              file

bios_tmp            0x284             build/setup.o
mmu_cr4_features    0x4               build/setup.o
max_pfn             0x4               build/bootmem.o
max_low_pfn         0x4               build/bootmem.o
empty_zero_page     0x1000            build/boot.o
swapper_pg_dir      0x1000            build/init.o
pgdat_list          0x4               build/page_alloc.o
zone_table          0xc               build/page_alloc.o
min_low_pfn         0x4               build/bootmem.o
e820                0x284             build/setup.o
kern_stack_top      0x4               build/boot.o
highend_pfn         0x4               build/init.o
mem_map             0x4               build/memory.o

Discarded input sections

 .comment       0x0000000000000000       0x2a build/boot.o
 .eh_frame      0x0000000000000000       0xa0 build/boot.o
 .comment       0x0000000000000000       0x2a build/main.o
 .eh_frame      0x0000000000000000       0x34 build/main.o
 .comment       0x0000000000000000       0x2a build/panic.o
 .comment       0x0000000000000000       0x2a build/printk.o
 .eh_frame      0x0000000000000000       0x38 build/printk.o
 .comment       0x0000000000000000       0x2a build/console.o
 .eh_frame      0x0000000000000000      0x198 build/console.o
 .comment       0x0000000000000000       0x2a build/ctype.o
 .comment       0x0000000000000000       0x2a build/string.o
 .eh_frame      0x0000000000000000      0x198 build/string.o
 .comment       0x0000000000000000       0x2a build/debug.o
 .eh_frame      0x0000000000000000       0x38 build/debug.o
 .comment       0x0000000000000000       0x2a build/vsprintf.o
 .eh_frame      0x0000000000000000      0x16c build/vsprintf.o
 .comment       0x0000000000000000       0x2a build/numa.o
 .comment       0x0000000000000000       0x2a build/bootmem.o
 .eh_frame      0x0000000000000000      0x1b8 build/bootmem.o
 .comment       0x0000000000000000       0x2a build/page_alloc.o
 .eh_frame      0x0000000000000000       0xbc build/page_alloc.o
 .comment       0x0000000000000000       0x2a build/memory.o
 .comment       0x0000000000000000       0x2a build/setup.o
 .eh_frame      0x0000000000000000      0x224 build/setup.o
 .comment       0x0000000000000000       0x2a build/resource.o
 .eh_frame      0x0000000000000000       0x58 build/resource.o
 .comment       0x0000000000000000       0x2a build/init_task.o
 .comment       0x0000000000000000       0x2a build/init.o
 .eh_frame      0x0000000000000000       0xd8 build/init.o

Memory Configuration

Name             Origin             Length             Attributes
*default*        0x0000000000000000 0xffffffffffffffff

Linker script and memory map

                0x0000000000100000                . = 0x100000
                0x0000000000100000                PROVIDE (_start = .)

.text.init      0x0000000000100000     0x1000
 *(.text.init)
 .text.init     0x0000000000100000       0x2d build/grub_head.o
                0x000000000010000c                start
                0x0000000000100025                flush
 .text.init     0x000000000010002d      0x2f7 build/boot.o
                0x00000000001002fb                kern_entry
                0x0000000000101000                . = ALIGN (0x1000)
 *fill*         0x0000000000100324      0xcdc 

.data.init      0x0000000000101000    0x99000
 *(.data.init)
 .data.init     0x0000000000101000    0x96000 build/grub_head.o
 .data.init     0x0000000000197000     0x3000 build/boot.o
                0x0000000000197000                global_multiboot_info
                0x0000000000198000                pgd
                0x0000000000199000                pte
                0x000000000019a000                . = ALIGN (0x2000)
                0x00000000c019a000                . = (. + 0xc0000000)

.text           0x00000000c019a000     0x4000 load address 0x000000000019a000
 *(.text)
 .text          0x00000000c019a000        0x0 build/boot.o
 .text          0x00000000c019a000       0x1d build/main.o
                0x00000000c019a000                start_kernel
 .text          0x00000000c019a01d        0x0 build/panic.o
 .text          0x00000000c019a01d       0x44 build/printk.o
                0x00000000c019a01d                printk
 .text          0x00000000c019a061      0x442 build/console.o
                0x00000000c019a080                print_char
                0x00000000c019a18f                print_str
                0x00000000c019a1bd                print_int
                0x00000000c019a1fc                print_hex
                0x00000000c019a24b                set_cursor
                0x00000000c019a2c7                flush_screen
                0x00000000c019a2f5                scroll_screen
                0x00000000c019a42f                console_clear
                0x00000000c019a491                console_write
                0x00000000c019a497                console_write_with_color
                0x00000000c019a49d                console_with_hex
 .text          0x00000000c019a4a3        0x0 build/ctype.o
 .text          0x00000000c019a4a3      0x3ae build/string.o
                0x00000000c019a4a3                itoa
                0x00000000c019a55a                uitoa
                0x00000000c019a616                strlen
                0x00000000c019a63e                strnlen
                0x00000000c019a673                strcpy
                0x00000000c019a6a3                strcat
                0x00000000c019a6e3                strcmp
                0x00000000c019a722                strchr
                0x00000000c019a74f                strrchr
                0x00000000c019a78f                memset
                0x00000000c019a7bd                memcpy
                0x00000000c019a7fa                memcmp
 .text          0x00000000c019a851       0x63 build/debug.o
                0x00000000c019a851                panic
 .text          0x00000000c019a8b4      0xb0e build/vsprintf.o
                0x00000000c019ac39                simple_strtol
                0x00000000c019ac7b                simple_strtoul
                0x00000000c019ad6b                printf
                0x00000000c019adb9                sprintf
                0x00000000c019ade9                snprintf
                0x00000000c019ae19                vsprintf
                0x00000000c019ae34                vsnprintf
 .text          0x00000000c019b3c2        0x0 build/numa.o
 .text          0x00000000c019b3c2      0x89a build/bootmem.o
                0x00000000c019b41a                init_bootmem
                0x00000000c019b4d7                free_bootmem
                0x00000000c019b5e0                reserve_bootmem
                0x00000000c019b736                __alloc_bootmem
                0x00000000c019b7ab                __alloc_bootmem_node
 .text          0x00000000c019bc5c      0x6c9 build/page_alloc.o
                0x00000000c019bc98                free_area_init
                0x00000000c019bcc1                free_area_init_core
 .text          0x00000000c019c325        0x0 build/memory.o
 .text          0x00000000c019c325     0x1329 build/setup.o
                0x00000000c019c72d                setup_arch
                0x00000000c019c7b7                show_memory_map
 .text          0x00000000c019d64e       0xce build/resource.o
                0x00000000c019d6f1                request_resource
 .text          0x00000000c019d71c        0x0 build/init_task.o
 .text          0x00000000c019d71c      0x389 build/init.o
                0x00000000c019d731                paging_init
                0x00000000c019e000                . = ALIGN (0x1000)
 *fill*         0x00000000c019daa5      0x55b 

.iplt           0x00000000c019e000        0x0 load address 0x000000000019e000
 .iplt          0x00000000c019e000        0x0 build/grub_head.o

.rel.dyn        0x00000000c019e000        0x0 load address 0x000000000019e000
 .rel.got       0x00000000c019e000        0x0 build/grub_head.o
 .rel.iplt      0x00000000c019e000        0x0 build/grub_head.o
 .rel.text      0x00000000c019e000        0x0 build/grub_head.o

.data           0x00000000c019e000     0x2000 load address 0x000000000019e000
 *(.data)
 .data          0x00000000c019e000        0x0 build/boot.o
 .data          0x00000000c019e000        0x0 build/main.o
 .data          0x00000000c019e000        0x0 build/panic.o
 .data          0x00000000c019e000        0x4 build/printk.o
 .data          0x00000000c019e004        0x4 build/console.o
 *fill*         0x00000000c019e008       0x18 
 .data          0x00000000c019e020      0x100 build/ctype.o
                0x00000000c019e020                _ctype
 .data          0x00000000c019e120        0x0 build/string.o
 .data          0x00000000c019e120        0x0 build/debug.o
 .data          0x00000000c019e120        0x0 build/vsprintf.o
 .data          0x00000000c019e120      0x328 build/numa.o
                0x00000000c019e120                contig_page_data
 .data          0x00000000c019e448        0x0 build/bootmem.o
 .data          0x00000000c019e448       0x30 build/page_alloc.o
 .data          0x00000000c019e478        0x0 build/memory.o
 *fill*         0x00000000c019e478        0x8 
 .data          0x00000000c019e480      0x288 build/setup.o
                0x00000000c019e480                boot_cpu_data
                0x00000000c019e510                pci_mem_start
                0x00000000c019e520                standard_io_resources
 .data          0x00000000c019e708       0x38 build/resource.o
                0x00000000c019e708                ioport_resource
                0x00000000c019e724                iomem_resource
 .data          0x00000000c019e740        0x0 build/init_task.o
 .data          0x00000000c019e740        0x0 build/init.o
 *(.rodata)
 .rodata        0x00000000c019e740        0xe build/main.o
 .rodata        0x00000000c019e74e        0x3 build/console.o
 .rodata        0x00000000c019e751       0x34 build/debug.o
 *fill*         0x00000000c019e785       0x1b 
 .rodata        0x00000000c019e7a0      0x205 build/vsprintf.o
 *fill*         0x00000000c019e9a5        0x3 
 .rodata        0x00000000c019e9a8      0x119 build/bootmem.o
 *fill*         0x00000000c019eac1        0x3 
 .rodata        0x00000000c019eac4       0x96 build/page_alloc.o
 *fill*         0x00000000c019eb5a        0x2 
 .rodata        0x00000000c019eb5c      0x2f7 build/setup.o
 .rodata        0x00000000c019ee53        0xf build/resource.o
 *fill*         0x00000000c019ee62        0x2 
 .rodata        0x00000000c019ee64       0xf6 build/init.o
                0x00000000c01a0000                . = ALIGN (0x2000)
 *fill*         0x00000000c019ef5a     0x10a6 

.got            0x00000000c01a0000        0x0 load address 0x00000000001a0000
 .got           0x00000000c01a0000        0x0 build/grub_head.o

.got.plt        0x00000000c01a0000        0x0 load address 0x00000000001a0000
 .got.plt       0x00000000c01a0000        0x0 build/grub_head.o

.igot.plt       0x00000000c01a0000        0x0 load address 0x00000000001a0000
 .igot.plt      0x00000000c01a0000        0x0 build/grub_head.o

.bss            0x00000000c01a0000     0x4004 load address 0x00000000001a0000
 *(.bss)
 .bss           0x00000000c01a0000        0x0 build/boot.o
 .bss           0x00000000c01a0000        0x0 build/main.o
 .bss           0x00000000c01a0000        0x0 build/panic.o
 .bss           0x00000000c01a0000      0x400 build/printk.o
 .bss           0x00000000c01a0400        0x4 build/console.o
                0x00000000c01a0400                cursor_x
                0x00000000c01a0402                cursor_y
 .bss           0x00000000c01a0404        0x0 build/ctype.o
 .bss           0x00000000c01a0404        0x0 build/string.o
 *fill*         0x00000000c01a0404       0x1c 
 .bss           0x00000000c01a0420      0x400 build/debug.o
 .bss           0x00000000c01a0820        0x0 build/vsprintf.o
 .bss           0x00000000c01a0820       0x14 build/numa.o
 .bss           0x00000000c01a0834        0x0 build/bootmem.o
 .bss           0x00000000c01a0834        0x0 build/page_alloc.o
 .bss           0x00000000c01a0834        0x0 build/memory.o
 .bss           0x00000000c01a0834        0x0 build/setup.o
 .bss           0x00000000c01a0834        0x0 build/resource.o
 .bss           0x00000000c01a0834        0x0 build/init_task.o
 .bss           0x00000000c01a0834        0x0 build/init.o
                0x00000000c01a1000                . = ALIGN (0x1000)
 *fill*         0x00000000c01a0834      0x7cc 
 COMMON         0x00000000c01a1000     0x1004 build/boot.o
                0x00000000c01a1000                empty_zero_page
                0x00000000c01a2000                kern_stack_top
 COMMON         0x00000000c01a2004        0xc build/bootmem.o
                0x00000000c01a2004                max_pfn
                0x00000000c01a2008                max_low_pfn
                0x00000000c01a200c                min_low_pfn
 COMMON         0x00000000c01a2010       0x10 build/page_alloc.o
                0x00000000c01a2010                pgdat_list
                0x00000000c01a2014                zone_table
 COMMON         0x00000000c01a2020        0x4 build/memory.o
                0x00000000c01a2020                mem_map
 *fill*         0x00000000c01a2024       0x1c 
 COMMON         0x00000000c01a2040      0x524 build/setup.o
                0x00000000c01a2040                bios_tmp
                0x00000000c01a22c4                mmu_cr4_features
                0x00000000c01a22e0                e820
 *fill*         0x00000000c01a2564      0xa9c 
 COMMON         0x00000000c01a3000     0x1004 build/init.o
                0x00000000c01a3000                swapper_pg_dir
                0x00000000c01a4000                highend_pfn

.stab           0x00000000c01a4004     0x1ffc load address 0x00000000001a4004
 *(.stab)
 .stab          0x00000000c01a4004        0xc build/grub_head.o
                0x00000000c01a6000                . = ALIGN (0x2000)
 *fill*         0x00000000c01a4010     0x1ff0 

.data.init_task
                0x00000000c01a6000        0x0 load address 0x00000000001a6000
 *(.data.init_task)
                0x00000000c01a6000                . = ALIGN (0x2000)
                [!provide]                        PROVIDE (__initcall_start = .)

.initcall.init  0x00000000c01a6000        0x0 load address 0x00000000001a6000
 *(.initcall.init)
                [!provide]                        PROVIDE (__initcall_end = .)
                0x00000000c01a6000                . = ALIGN (0x2000)
                0x00000000c01a8000                . = (. + 0x2000)

.stabstr        0x00000000c01a8000     0x1000 load address 0x00000000001a8000
 *(.stabstr)
 .stabstr       0x00000000c01a8000        0x1 build/grub_head.o
                0x00000000c01a9000                . = ALIGN (0x1000)
 *fill*         0x00000000c01a8001      0xfff 
                0x00000000c01a9000                PROVIDE (_end = .)

/DISCARD/
 *(.comment)
 *(.eh_frame)
LOAD build/grub_head.o
LOAD build/boot.o
LOAD build/main.o
LOAD build/panic.o
LOAD build/printk.o
LOAD build/console.o
LOAD build/ctype.o
LOAD build/string.o
LOAD build/debug.o
LOAD build/vsprintf.o
LOAD build/numa.o
LOAD build/bootmem.o
LOAD build/page_alloc.o
LOAD build/memory.o
LOAD build/setup.o
LOAD build/resource.o
LOAD build/init_task.o
LOAD build/init.o
OUTPUT(build/kernel.bin elf32-i386)

.debug_info     0x0000000000000000     0x4791
 .debug_info    0x0000000000000000      0x485 build/boot.o
 .debug_info    0x0000000000000485       0x84 build/main.o
 .debug_info    0x0000000000000509       0x56 build/panic.o
 .debug_info    0x000000000000055f      0x12a build/printk.o
 .debug_info    0x0000000000000689      0x3e2 build/console.o
 .debug_info    0x0000000000000a6b       0x51 build/ctype.o
 .debug_info    0x0000000000000abc      0x48d build/string.o
 .debug_info    0x0000000000000f49       0xd0 build/debug.o
 .debug_info    0x0000000000001019      0x5d0 build/vsprintf.o
 .debug_info    0x00000000000015e9      0x3bd build/numa.o
 .debug_info    0x00000000000019a6      0xa4f build/bootmem.o
 .debug_info    0x00000000000023f5      0x79a build/page_alloc.o
 .debug_info    0x0000000000002b8f      0x191 build/memory.o
 .debug_info    0x0000000000002d20      0xf3f build/setup.o
 .debug_info    0x0000000000003c5f      0x1ff build/resource.o
 .debug_info    0x0000000000003e5e      0x933 build/init.o

.debug_abbrev   0x0000000000000000     0x1089
 .debug_abbrev  0x0000000000000000      0x18e build/boot.o
 .debug_abbrev  0x000000000000018e       0x58 build/main.o
 .debug_abbrev  0x00000000000001e6       0x26 build/panic.o
 .debug_abbrev  0x000000000000020c       0xbd build/printk.o
 .debug_abbrev  0x00000000000002c9      0x133 build/console.o
 .debug_abbrev  0x00000000000003fc       0x47 build/ctype.o
 .debug_abbrev  0x0000000000000443       0xe1 build/string.o
 .debug_abbrev  0x0000000000000524       0x98 build/debug.o
 .debug_abbrev  0x00000000000005bc      0x137 build/vsprintf.o
 .debug_abbrev  0x00000000000006f3       0xc7 build/numa.o
 .debug_abbrev  0x00000000000007ba      0x1bd build/bootmem.o
 .debug_abbrev  0x0000000000000977      0x17e build/page_alloc.o
 .debug_abbrev  0x0000000000000af5       0xab build/memory.o
 .debug_abbrev  0x0000000000000ba0      0x232 build/setup.o
 .debug_abbrev  0x0000000000000dd2      0x10f build/resource.o
 .debug_abbrev  0x0000000000000ee1      0x1a8 build/init.o

.debug_loc      0x0000000000000000     0x11d8
 .debug_loc     0x0000000000000000       0xe0 build/boot.o
 .debug_loc     0x00000000000000e0       0x2c build/main.o
 .debug_loc     0x000000000000010c       0x38 build/printk.o
 .debug_loc     0x0000000000000144      0x2a0 build/console.o
 .debug_loc     0x00000000000003e4      0x2a0 build/string.o
 .debug_loc     0x0000000000000684       0x38 build/debug.o
 .debug_loc     0x00000000000006bc      0x230 build/vsprintf.o
 .debug_loc     0x00000000000008ec      0x2d8 build/bootmem.o
 .debug_loc     0x0000000000000bc4      0x118 build/page_alloc.o
 .debug_loc     0x0000000000000cdc      0x33c build/setup.o
 .debug_loc     0x0000000000001018       0x70 build/resource.o
 .debug_loc     0x0000000000001088      0x150 build/init.o

.debug_aranges  0x0000000000000000      0x1f8
 .debug_aranges
                0x0000000000000000       0x38 build/boot.o
 .debug_aranges
                0x0000000000000038       0x20 build/main.o
 .debug_aranges
                0x0000000000000058       0x18 build/panic.o
 .debug_aranges
                0x0000000000000070       0x20 build/printk.o
 .debug_aranges
                0x0000000000000090       0x20 build/console.o
 .debug_aranges
                0x00000000000000b0       0x18 build/ctype.o
 .debug_aranges
                0x00000000000000c8       0x20 build/string.o
 .debug_aranges
                0x00000000000000e8       0x20 build/debug.o
 .debug_aranges
                0x0000000000000108       0x20 build/vsprintf.o
 .debug_aranges
                0x0000000000000128       0x18 build/numa.o
 .debug_aranges
                0x0000000000000140       0x20 build/bootmem.o
 .debug_aranges
                0x0000000000000160       0x20 build/page_alloc.o
 .debug_aranges
                0x0000000000000180       0x18 build/memory.o
 .debug_aranges
                0x0000000000000198       0x20 build/setup.o
 .debug_aranges
                0x00000000000001b8       0x20 build/resource.o
 .debug_aranges
                0x00000000000001d8       0x20 build/init.o

.debug_ranges   0x0000000000000000       0x70
 .debug_ranges  0x0000000000000000       0x28 build/boot.o
 .debug_ranges  0x0000000000000028       0x18 build/bootmem.o
 .debug_ranges  0x0000000000000040       0x30 build/setup.o

.debug_line     0x0000000000000000     0x1201
 .debug_line    0x0000000000000000      0x108 build/boot.o
 .debug_line    0x0000000000000108       0x40 build/main.o
 .debug_line    0x0000000000000148       0x1d build/panic.o
 .debug_line    0x0000000000000165       0x7f build/printk.o
 .debug_line    0x00000000000001e4      0x163 build/console.o
 .debug_line    0x0000000000000347       0x47 build/ctype.o
 .debug_line    0x000000000000038e      0x11d build/string.o
 .debug_line    0x00000000000004ab       0x42 build/debug.o
 .debug_line    0x00000000000004ed      0x261 build/vsprintf.o
 .debug_line    0x000000000000074e       0x5d build/numa.o
 .debug_line    0x00000000000007ab      0x236 build/bootmem.o
 .debug_line    0x00000000000009e1      0x1c2 build/page_alloc.o
 .debug_line    0x0000000000000ba3       0x6d build/memory.o
 .debug_line    0x0000000000000c10      0x390 build/setup.o
 .debug_line    0x0000000000000fa0       0xa9 build/resource.o
 .debug_line    0x0000000000001049        0x0 build/init_task.o
 .debug_line    0x0000000000001049      0x1b8 build/init.o

.debug_str      0x0000000000000000     0x1160
 .debug_str     0x0000000000000000      0x342 build/boot.o
                                        0x3a6 (size before relaxing)
 .debug_str     0x0000000000000342       0x17 build/main.o
                                        0x101 (size before relaxing)
 .debug_str     0x0000000000000359        0xf build/panic.o
                                         0xec (size before relaxing)
 .debug_str     0x0000000000000368       0x40 build/printk.o
                                        0x13a (size before relaxing)
 .debug_str     0x00000000000003a8      0x1c2 build/console.o
                                        0x2e9 (size before relaxing)
 .debug_str     0x000000000000056a       0x13 build/ctype.o
                                         0xa2 (size before relaxing)
 .debug_str     0x000000000000057d       0x89 build/string.o
                                        0x182 (size before relaxing)
 .debug_str     0x0000000000000606       0x12 build/debug.o
                                         0xf9 (size before relaxing)
 .debug_str     0x0000000000000618       0xcd build/vsprintf.o
                                        0x218 (size before relaxing)
 .debug_str     0x00000000000006e5      0x234 build/numa.o
                                        0x363 (size before relaxing)
 .debug_str     0x0000000000000919      0x26c build/bootmem.o
                                        0x5cf (size before relaxing)
 .debug_str     0x0000000000000b85      0x14d build/page_alloc.o
                                        0x4d4 (size before relaxing)
 .debug_str     0x0000000000000cd2        0xc build/memory.o
                                        0x17c (size before relaxing)
 .debug_str     0x0000000000000cde      0x34e build/setup.o
                                        0x953 (size before relaxing)
 .debug_str     0x000000000000102c       0x54 build/resource.o
                                        0x1a7 (size before relaxing)
 .debug_str     0x0000000000001080       0x1d build/init_task.o
                                         0x91 (size before relaxing)
 .debug_str     0x000000000000109d       0xc3 build/init.o
                                        0x59d (size before relaxing)

.note.GNU-stack
                0x0000000000000000        0x0
 .note.GNU-stack
                0x0000000000000000        0x0 build/boot.o
 .note.GNU-stack
                0x0000000000000000        0x0 build/main.o
 .note.GNU-stack
                0x0000000000000000        0x0 build/panic.o
 .note.GNU-stack
                0x0000000000000000        0x0 build/printk.o
 .note.GNU-stack
                0x0000000000000000        0x0 build/console.o
 .note.GNU-stack
                0x0000000000000000        0x0 build/ctype.o
 .note.GNU-stack
                0x0000000000000000        0x0 build/string.o
 .note.GNU-stack
                0x0000000000000000        0x0 build/debug.o
 .note.GNU-stack
                0x0000000000000000        0x0 build/vsprintf.o
 .note.GNU-stack
                0x0000000000000000        0x0 build/numa.o
 .note.GNU-stack
                0x0000000000000000        0x0 build/bootmem.o
 .note.GNU-stack
                0x0000000000000000        0x0 build/page_alloc.o
 .note.GNU-stack
                0x0000000000000000        0x0 build/memory.o
 .note.GNU-stack
                0x0000000000000000        0x0 build/setup.o
 .note.GNU-stack
                0x0000000000000000        0x0 build/resource.o
 .note.GNU-stack
                0x0000000000000000        0x0 build/init_task.o
 .note.GNU-stack
                0x0000000000000000        0x0 build/init.o
